target datalayout = "e-m:e-p270:32:32-p271:32:32-p272:64:64-i64:64-i128:128-f80:128-n8:16:32:64-S128"
target triple = "x86_64-unknown-linux-gnu"

%"class.nlsat::solver" = type { ptr, ptr }
%"struct.nlsat::solver::imp" = type { ptr, ptr, ptr, ptr, i8, ptr, ptr, %"class.polynomial::cache", ptr, %class.dependency_manager, %"class.nlsat::assignment", %"class.nlsat::evaluator", ptr, %class.chashtable, %class.chashtable.7, %class.svector.8, %class.ref_vector, %class.ref_vector, %class.id_gen, %class.ptr_vector.12, %class.ptr_vector.12, %class.ptr_vector.12, i32, %class.ptr_vector.14, %class.svector.16, %class.svector.8, %class.svector.18, %class.vector.20, %class.svector.5, %class.id_gen, %class.svector.5, %class.vector.20, %class.ptr_vector.21, %class.ptr_vector.14, %class.svector.8, %class.svector.8, %"struct.nlsat::solver::imp::perm_display_var_proc", ptr, %"class.nlsat::explain", i32, i32, i32, %class.svector.23, %"class.algebraic_numbers::anum", i64, i32, i8, i8, i8, i8, i32, i8, i8, i8, i32, i32, i32, i32, i32, i32, i32, %class.svector.5, %class.svector.25, %class.ptr_vector.12, i32, %class.svector.27, i32, %"class.nlsat::scoped_literal_vector", %"class.nlsat::scoped_literal_vector", %class.obj_ref, %class.svector.8, %class.svector.8, %class.svector.16 }
%"class.polynomial::cache" = type { ptr }
%class.dependency_manager = type { ptr, ptr, %class.ptr_vector.1 }
%class.ptr_vector.1 = type { %class.vector.2 }
%class.vector.2 = type { ptr }
%"class.nlsat::assignment" = type { %"class.polynomial::var2value", %class._scoped_numeral_vector, %class.svector.5 }
%"class.polynomial::var2value" = type { ptr }
%class._scoped_numeral_vector = type { %class.svector.3, ptr }
%class.svector.3 = type { %class.vector.4 }
%class.vector.4 = type { ptr }
%"class.nlsat::evaluator" = type { ptr }
%class.chashtable = type { ptr, i32, i32, i32, i32, i32, i32, i32, ptr, ptr, ptr }
%class.chashtable.7 = type { ptr, i32, i32, i32, i32, i32, i32, i32, ptr, ptr, ptr }
%class.ref_vector = type { %class.ref_vector_core }
%class.ref_vector_core = type { %class.ref_manager_wrapper, %class.ptr_vector.10 }
%class.ref_manager_wrapper = type { ptr }
%class.ptr_vector.10 = type { %class.vector.11 }
%class.vector.11 = type { ptr }
%class.svector.18 = type { %class.vector.19 }
%class.vector.19 = type { ptr }
%class.id_gen = type { i32, %class.svector.8 }
%class.vector.20 = type { ptr }
%class.ptr_vector.21 = type { %class.vector.22 }
%class.vector.22 = type { ptr }
%class.ptr_vector.14 = type { %class.vector.15 }
%class.vector.15 = type { ptr }
%"struct.nlsat::solver::imp::perm_display_var_proc" = type { %"struct.polynomial::display_var_proc", ptr, %"struct.polynomial::display_var_proc", ptr }
%"struct.polynomial::display_var_proc" = type { ptr }
%"class.nlsat::explain" = type { ptr }
%class.svector.23 = type { %class.vector.24 }
%class.vector.24 = type { ptr }
%"class.algebraic_numbers::anum" = type { ptr }
%class.svector.5 = type { %class.vector.6 }
%class.vector.6 = type { ptr }
%class.svector.25 = type { %class.vector.26 }
%class.vector.26 = type { ptr }
%class.ptr_vector.12 = type { %class.vector.13 }
%class.vector.13 = type { ptr }
%class.svector.27 = type { %class.vector.28 }
%class.vector.28 = type { ptr }
%"class.nlsat::scoped_literal_vector" = type { ptr, %class.svector.25 }
%class.obj_ref = type { ptr, ptr }
%class.svector.8 = type { %class.vector.9 }
%class.vector.9 = type { ptr }
%class.svector.16 = type { %class.vector.17 }
%class.vector.17 = type { ptr }

; Function Attrs: mustprogress nounwind uwtable
define linkonce_odr hidden noundef i32 @_ZNK6vectorIbLb0EjE4sizeEv(ptr noundef nonnull align 8 dereferenceable(8) %this) #4 comdat align 2 {
entry:
  %retval = alloca i32, align 4
  %this.addr = alloca ptr, align 8
  store ptr %this, ptr %this.addr, align 8
  %this1 = load ptr, ptr %this.addr, align 8
  %m_data = getelementptr inbounds %class.vector.6, ptr %this1, i32 0, i32 0
  %0 = load ptr, ptr %m_data, align 8
  %cmp = icmp eq ptr %0, null
  br i1 %cmp, label %if.then, label %if.end

if.then:                                          ; preds = %entry
  store i32 0, ptr %retval, align 4
  br label %return

if.end:                                           ; preds = %entry
  %m_data2 = getelementptr inbounds %class.vector.6, ptr %this1, i32 0, i32 0
  %1 = load ptr, ptr %m_data2, align 8
  %arrayidx = getelementptr inbounds i32, ptr %1, i64 -1
  %2 = load i32, ptr %arrayidx, align 4
  store i32 %2, ptr %retval, align 4
  br label %return

return:                                           ; preds = %if.end, %if.then
  %3 = load i32, ptr %retval, align 4
  ret i32 %3
}

; Function Attrs: mustprogress nounwind uwtable
define linkonce_odr hidden noundef nonnull align 8 dereferenceable(8) ptr @_ZNK6vectorIN17algebraic_numbers4anumELb0EjEixEj(ptr noundef nonnull align 8 dereferenceable(8) %this, i32 noundef %idx) #4 comdat align 2 {
entry:
  %this.addr = alloca ptr, align 8
  %idx.addr = alloca i32, align 4
  store ptr %this, ptr %this.addr, align 8
  store i32 %idx, ptr %idx.addr, align 4
  %this1 = load ptr, ptr %this.addr, align 8
  %m_data = getelementptr inbounds %class.vector.4, ptr %this1, i32 0, i32 0
  %0 = load ptr, ptr %m_data, align 8
  %1 = load i32, ptr %idx.addr, align 4
  %idxprom = zext i32 %1 to i64
  %arrayidx = getelementptr inbounds %"class.algebraic_numbers::anum", ptr %0, i64 %idxprom
  ret ptr %arrayidx
}

; Function Attrs: mustprogress nounwind uwtable
define linkonce_odr hidden noundef nonnull align 1 dereferenceable(1) ptr @_ZNK6vectorIbLb0EjE3getEjRKb(ptr noundef nonnull align 8 dereferenceable(8) %this, i32 noundef %idx, ptr noundef nonnull align 1 dereferenceable(1) %d) #4 comdat align 2 {
entry:
  %retval = alloca ptr, align 8
  %this.addr = alloca ptr, align 8
  %idx.addr = alloca i32, align 4
  %d.addr = alloca ptr, align 8
  store ptr %this, ptr %this.addr, align 8
  store i32 %idx, ptr %idx.addr, align 4
  store ptr %d, ptr %d.addr, align 8
  %this1 = load ptr, ptr %this.addr, align 8
  %0 = load i32, ptr %idx.addr, align 4
  %call = call noundef i32 @_ZNK6vectorIbLb0EjE4sizeEv(ptr noundef nonnull align 8 dereferenceable(8) %this1)
  %cmp = icmp uge i32 %0, %call
  br i1 %cmp, label %if.then, label %if.end

if.then:                                          ; preds = %entry
  %1 = load ptr, ptr %d.addr, align 8
  store ptr %1, ptr %retval, align 8
  br label %return

if.end:                                           ; preds = %entry
  %m_data = getelementptr inbounds %class.vector.6, ptr %this1, i32 0, i32 0
  %2 = load ptr, ptr %m_data, align 8
  %3 = load i32, ptr %idx.addr, align 4
  %idxprom = zext i32 %3 to i64
  %arrayidx = getelementptr inbounds i8, ptr %2, i64 %idxprom
  store ptr %arrayidx, ptr %retval, align 8
  br label %return

return:                                           ; preds = %if.end, %if.then
  %4 = load ptr, ptr %retval, align 8
  ret ptr %4
}

; Function Attrs: mustprogress uwtable
define linkonce_odr hidden noundef nonnull align 8 dereferenceable(8) ptr @_ZNK5nlsat10assignment5valueEj(ptr noundef nonnull align 8 dereferenceable(32) %this, i32 noundef %x) #5 comdat align 2 {
entry:
  %this.addr = alloca ptr, align 8
  %x.addr = alloca i32, align 4
  store ptr %this, ptr %this.addr, align 8
  store i32 %x, ptr %x.addr, align 4
  %this1 = load ptr, ptr %this.addr, align 8
  %m_values = getelementptr inbounds %"class.nlsat::assignment", ptr %this1, i32 0, i32 1
  %0 = load i32, ptr %x.addr, align 4
  %call = call noundef nonnull align 8 dereferenceable(8) ptr @_ZNK6vectorIN17algebraic_numbers4anumELb0EjEixEj(ptr noundef nonnull align 8 dereferenceable(8) %m_values, i32 noundef %0)
  ret ptr %call
}

; Function Attrs: mustprogress nounwind uwtable
define linkonce_odr hidden noundef zeroext i1 @_ZNK5nlsat10assignment11is_assignedEj(ptr noundef nonnull align 8 dereferenceable(32) %this, i32 noundef %x) #4 comdat align 2 {
entry:
  %this.addr = alloca ptr, align 8
  %x.addr = alloca i32, align 4
  %ref.tmp = alloca i8, align 1
  store ptr %this, ptr %this.addr, align 8
  store i32 %x, ptr %x.addr, align 4
  %this1 = load ptr, ptr %this.addr, align 8
  %m_assigned = getelementptr inbounds %"class.nlsat::assignment", ptr %this1, i32 0, i32 2
  %0 = load i32, ptr %x.addr, align 4
  store i8 0, ptr %ref.tmp, align 1
  %call = call noundef nonnull align 1 dereferenceable(1) ptr @_ZNK6vectorIbLb0EjE3getEjRKb(ptr noundef nonnull align 8 dereferenceable(8) %m_assigned, i32 noundef %0, ptr noundef nonnull align 1 dereferenceable(1) %ref.tmp)
  %1 = load i8, ptr %call, align 1
  %tobool = trunc i8 %1 to i1
  ret i1 %tobool
}

; Function Attrs: mustprogress uwtable
define hidden noundef nonnull align 8 dereferenceable(8) ptr @_ZNK5nlsat6solver5valueEj(ptr noundef nonnull align 8 dereferenceable(16) %this, i32 noundef %x) #5 align 2 {
entry:
  %retval = alloca ptr, align 8
  %this.addr = alloca ptr, align 8
  %x.addr = alloca i32, align 4
  store ptr %this, ptr %this.addr, align 8
  store i32 %x, ptr %x.addr, align 4
  %this1 = load ptr, ptr %this.addr, align 8
  %m_imp = getelementptr inbounds %"class.nlsat::solver", ptr %this1, i32 0, i32 0
  %0 = load ptr, ptr %m_imp, align 8
  %m_assignment = getelementptr inbounds %"struct.nlsat::solver::imp", ptr %0, i32 0, i32 10
  %1 = load i32, ptr %x.addr, align 4
  %call = call noundef zeroext i1 @_ZNK5nlsat10assignment11is_assignedEj(ptr noundef nonnull align 8 dereferenceable(32) %m_assignment, i32 noundef %1)
  br i1 %call, label %if.then, label %if.end

if.then:                                          ; preds = %entry
  %m_imp2 = getelementptr inbounds %"class.nlsat::solver", ptr %this1, i32 0, i32 0
  %2 = load ptr, ptr %m_imp2, align 8
  %m_assignment3 = getelementptr inbounds %"struct.nlsat::solver::imp", ptr %2, i32 0, i32 10
  %3 = load i32, ptr %x.addr, align 4
  %call4 = call noundef nonnull align 8 dereferenceable(8) ptr @_ZNK5nlsat10assignment5valueEj(ptr noundef nonnull align 8 dereferenceable(32) %m_assignment3, i32 noundef %3)
  store ptr %call4, ptr %retval, align 8
  br label %return

if.end:                                           ; preds = %entry
  %m_imp5 = getelementptr inbounds %"class.nlsat::solver", ptr %this1, i32 0, i32 0
  %4 = load ptr, ptr %m_imp5, align 8
  %m_zero = getelementptr inbounds %"struct.nlsat::solver::imp", ptr %4, i32 0, i32 43
  store ptr %m_zero, ptr %retval, align 8
  br label %return

return:                                           ; preds = %if.end, %if.then
  %5 = load ptr, ptr %retval, align 8
  ret ptr %5
}