; Function Attrs: mustprogress nofree norecurse nosync nounwind willreturn memory(read, inaccessiblemem: none) uwtable
define hidden noundef nonnull align 8 dereferenceable(8) ptr @_ZNK5nlsat6solver5valueEj(ptr nocapture noundef nonnull readonly align 8 dereferenceable(16) %this, i32 noundef %x) local_unnamed_addr #7 align 2 {
entry:
  %0 = load ptr, ptr %this, align 8
  %m_assigned.i = getelementptr inbounds i8, ptr %0, i64 120
  %1 = load ptr, ptr %m_assigned.i, align 8
  %cmp.i.i.i = icmp eq ptr %1, null
  br i1 %cmp.i.i.i, label %if.end, label %_ZNK6vectorIbLb0EjE3getEjRKb.exit.i

_ZNK6vectorIbLb0EjE3getEjRKb.exit.i:              ; preds = %entry
  %arrayidx.i.i.i = getelementptr inbounds i8, ptr %1, i64 -4
  %2 = load i32, ptr %arrayidx.i.i.i, align 4
  %cmp.not.i.i = icmp ugt i32 %2, %x
  br i1 %cmp.not.i.i, label %_ZNK5nlsat10assignment11is_assignedEj.exit, label %if.end

_ZNK5nlsat10assignment11is_assignedEj.exit:       ; preds = %_ZNK6vectorIbLb0EjE3getEjRKb.exit.i
  %idxprom.i.i = zext i32 %x to i64
  %arrayidx.i.i = getelementptr inbounds i8, ptr %1, i64 %idxprom.i.i
  %.then.val.i = load i8, ptr %arrayidx.i.i, align 1
  %3 = and i8 %.then.val.i, 1
  %.not = icmp eq i8 %3, 0
  br i1 %.not, label %if.end, label %if.then

if.then:                                          ; preds = %_ZNK5nlsat10assignment11is_assignedEj.exit
  %m_values.i = getelementptr inbounds i8, ptr %0, i64 104
  %4 = load ptr, ptr %m_values.i, align 8
  %arrayidx.i.i3 = getelementptr inbounds %"class.algebraic_numbers::anum", ptr %4, i64 %idxprom.i.i
  br label %return

if.end:                                           ; preds = %entry, %_ZNK6vectorIbLb0EjE3getEjRKb.exit.i, %_ZNK5nlsat10assignment11is_assignedEj.exit
  %m_zero = getelementptr inbounds i8, ptr %0, i64 544
  br label %return

return:                                           ; preds = %if.end, %if.then
  %retval.0 = phi ptr [ %arrayidx.i.i3, %if.then ], [ %m_zero, %if.end ]
  ret ptr %retval.0
}